Certificate:
    Data:
        Version: 3 (0x2)
        Serial Number: 10150234320881753957 (0x8cdce0562b229f65)
    Signature Algorithm: sha1WithRSAEncryption
        Issuer: C=US, ST=AZ, O=DDF, OU=Dev, CN=DDF Demo Root CA/emailAddress=ddfrootca@example.org
        Validity
            Not Before: Dec 10 21:56:30 2014 GMT
            Not After : Dec  9 21:56:30 2017 GMT
        Subject: C=US, ST=AZ, O=DDF, OU=Dev, CN=DDF Demo Root CA/emailAddress=ddfrootca@example.org
        Subject Public Key Info:
            Public Key Algorithm: rsaEncryption
                Public-Key: (1024 bit)
                Modulus:
                    00:b5:6d:14:92:15:62:06:fe:d3:bf:e3:05:9d:4a:
                    5d:95:42:c6:e7:f4:85:4a:0e:30:ec:36:bd:82:7c:
                    56:a8:52:ef:9e:52:7f:be:2a:45:c5:5a:3e:6f:01:
                    72:b5:95:1b:cd:0e:76:eb:57:b7:33:fe:ca:59:ce:
                    fe:d8:e6:af:e9:b2:c6:c2:a7:a6:87:57:65:c2:ea:
                    0b:34:04:e7:ca:e1:e7:b6:c5:25:10:09:4a:3a:89:
                    8e:7c:be:24:14:b2:d0:c7:48:dc:db:49:4b:7c:95:
                    9a:b5:20:65:15:47:74:8a:ae:60:13:cc:8f:12:31:
                    81:1b:13:db:7d:05:d4:c9:df
                Exponent: 65537 (0x10001)
        X509v3 extensions:
            X509v3 Subject Key Identifier: 
                E1:54:C7:97:DF:0A:C2:BF:A9:5F:78:5E:3B:0B:2B:E4:48:17:BD:C6
            X509v3 Authority Key Identifier: 
                keyid:E1:54:C7:97:DF:0A:C2:BF:A9:5F:78:5E:3B:0B:2B:E4:48:17:BD:C6

            X509v3 Basic Constraints: 
                CA:TRUE
    Signature Algorithm: sha1WithRSAEncryption
         9f:10:97:33:98:32:33:62:a8:0e:98:00:82:7e:2c:66:d3:49:
         76:dc:d6:79:c0:80:fe:ae:9e:7b:da:b5:29:9e:c3:ca:3f:9c:
         62:33:72:b9:91:09:e1:a0:77:90:6c:c7:fc:47:9d:c1:6d:49:
         e2:d1:89:d8:29:e8:0b:d7:03:de:bf:d2:29:3b:5b:93:d6:c4:
         5c:db:c3:2e:ef:58:8a:e4:1f:1f:ed:9d:69:1a:e9:bf:79:fc:
         59:41:23:e1:b1:c9:c2:62:19:96:42:c0:d5:86:14:15:97:5a:
         b9:ff:69:50:95:89:c6:50:ee:af:a7:3c:0b:82:91:5f:93:28:
         86:a5
-----BEGIN CERTIFICATE-----
MIICvDCCAiWgAwIBAgIJAIzc4FYrIp9lMA0GCSqGSIb3DQEBBQUAMHcxCzAJBgNV
BAYTAlVTMQswCQYDVQQIDAJBWjEMMAoGA1UECgwDRERGMQwwCgYDVQQLDANEZXYx
GTAXBgNVBAMMEERERiBEZW1vIFJvb3QgQ0ExJDAiBgkqhkiG9w0BCQEWFWRkZnJv
b3RjYUBleGFtcGxlLm9yZzAeFw0xNDEyMTAyMTU2MzBaFw0xNzEyMDkyMTU2MzBa
MHcxCzAJBgNVBAYTAlVTMQswCQYDVQQIDAJBWjEMMAoGA1UECgwDRERGMQwwCgYD
VQQLDANEZXYxGTAXBgNVBAMMEERERiBEZW1vIFJvb3QgQ0ExJDAiBgkqhkiG9w0B
CQEWFWRkZnJvb3RjYUBleGFtcGxlLm9yZzCBnzANBgkqhkiG9w0BAQEFAAOBjQAw
gYkCgYEAtW0UkhViBv7Tv+MFnUpdlULG5/SFSg4w7Da9gnxWqFLvnlJ/vipFxVo+
bwFytZUbzQ5261e3M/7KWc7+2Oav6bLGwqemh1dlwuoLNATnyuHntsUlEAlKOomO
fL4kFLLQx0jc20lLfJWatSBlFUd0iq5gE8yPEjGBGxPbfQXUyd8CAwEAAaNQME4w
HQYDVR0OBBYEFOFUx5ffCsK/qV94XjsLK+RIF73GMB8GA1UdIwQYMBaAFOFUx5ff
CsK/qV94XjsLK+RIF73GMAwGA1UdEwQFMAMBAf8wDQYJKoZIhvcNAQEFBQADgYEA
nxCXM5gyM2KoDpgAgn4sZtNJdtzWecCA/q6ee9q1KZ7Dyj+cYjNyuZEJ4aB3kGzH
/EedwW1J4tGJ2CnoC9cD3r/SKTtbk9bEXNvDLu9YiuQfH+2daRrpv3n8WUEj4bHJ
wmIZlkLA1YYUFZdauf9pUJWJxlDur6c8C4KRX5MohqU=
-----END CERTIFICATE-----
