Certificate:
    Data:
        Version: 3 (0x2)
        Serial Number: 14311466971964385926 (0xc69c8b62b6ac2a86)
    Signature Algorithm: sha1WithRSAEncryption
        Issuer: C=US, ST=AZ, O=DDF, OU=Dev, CN=DDF Demo Root CA/emailAddress=rootca@ddf.org
        Validity
            Not Before: Dec  8 18:14:37 2014 GMT
            Not After : Dec  8 18:14:37 2015 GMT
        Subject: C=US, ST=AZ, L=Goodyear, O=DDF, OU=Dev, CN=pparker/emailAddress=pparker@ddf.org
        Subject Public Key Info:
            Public Key Algorithm: rsaEncryption
                Public-Key: (1024 bit)
                Modulus:
                    00:e2:15:ad:6c:bb:a8:ce:75:1c:17:ad:14:57:dc:
                    dc:29:63:eb:2f:bf:56:e6:31:97:4d:bd:89:0a:83:
                    b1:4e:19:6c:a8:f4:02:a9:7d:e7:41:46:2f:48:92:
                    11:96:08:93:76:7c:dd:4d:36:ef:a6:f9:82:65:d6:
                    02:d0:19:2c:3f:27:72:7b:aa:89:62:af:91:1d:ab:
                    5e:ae:0e:bb:e9:83:dc:f2:9b:80:e8:ca:03:f2:75:
                    0f:9d:5c:05:e2:69:61:34:69:29:52:3e:1a:b6:e2:
                    ff:50:ae:87:17:9b:98:ca:f9:8e:cf:05:2e:b6:e2:
                    f2:af:9f:a8:66:83:d7:19:6b
                Exponent: 65537 (0x10001)
        X509v3 extensions:
            X509v3 Basic Constraints: 
                CA:FALSE
            Netscape Comment: 
                FOR TESTING PURPOSE ONLY
            X509v3 Subject Key Identifier: 
                F4:D4:41:5D:77:B2:AD:E5:BF:96:7E:8C:3A:3B:ED:30:2F:99:CF:90
            X509v3 Authority Key Identifier: 
                keyid:FF:FF:1B:39:1D:AF:90:E7:A6:5D:C7:A7:14:0F:A5:FF:FC:EC:84:36

            X509v3 Subject Alternative Name: 
                email:pparker@ddf.org
    Signature Algorithm: sha1WithRSAEncryption
         41:be:92:f4:e8:56:49:53:e2:61:3a:28:d4:34:df:44:9d:d8:
         ec:9c:42:58:e8:9d:f7:a4:e8:47:b5:1e:47:13:51:64:dd:f2:
         47:7b:80:af:a7:b9:0e:c9:a5:e8:9d:e4:07:3b:10:d3:e5:84:
         f8:29:dd:ae:a3:1c:d6:d7:e5:ee:90:35:69:72:23:4f:2d:3b:
         19:6e:d6:5b:5b:92:e1:63:62:24:ac:bb:da:a6:83:f3:a7:f1:
         e3:31:f0:8c:53:52:9e:6c:0f:ad:22:77:b3:a6:4f:b3:b2:aa:
         c8:8d:a4:98:47:76:30:8d:59:00:cf:16:91:fe:47:92:d8:24:
         de:47
-----BEGIN CERTIFICATE-----
MIIC/TCCAmagAwIBAgIJAMaci2K2rCqGMA0GCSqGSIb3DQEBBQUAMHAxCzAJBgNV
BAYTAlVTMQswCQYDVQQIDAJBWjEMMAoGA1UECgwDRERGMQwwCgYDVQQLDANEZXYx
GTAXBgNVBAMMEERERiBEZW1vIFJvb3QgQ0ExHTAbBgkqhkiG9w0BCQEWDnJvb3Rj
YUBkZGYub3JnMB4XDTE0MTIwODE4MTQzN1oXDTE1MTIwODE4MTQzN1owezELMAkG
A1UEBhMCVVMxCzAJBgNVBAgMAkFaMREwDwYDVQQHDAhHb29keWVhcjEMMAoGA1UE
CgwDRERGMQwwCgYDVQQLDANEZXYxEDAOBgNVBAMMB3BwYXJrZXIxHjAcBgkqhkiG
9w0BCQEWD3BwYXJrZXJAZGRmLm9yZzCBnzANBgkqhkiG9w0BAQEFAAOBjQAwgYkC
gYEA4hWtbLuoznUcF60UV9zcKWPrL79W5jGXTb2JCoOxThlsqPQCqX3nQUYvSJIR
lgiTdnzdTTbvpvmCZdYC0BksPydye6qJYq+RHaterg676YPc8puA6MoD8nUPnVwF
4mlhNGkpUj4atuL/UK6HF5uYyvmOzwUutuLyr5+oZoPXGWsCAwEAAaOBkzCBkDAJ
BgNVHRMEAjAAMCcGCWCGSAGG+EIBDQQaFhhGT1IgVEVTVElORyBQVVJQT1NFIE9O
TFkwHQYDVR0OBBYEFPTUQV13sq3lv5Z+jDo77TAvmc+QMB8GA1UdIwQYMBaAFP//
Gzkdr5Dnpl3HpxQPpf/87IQ2MBoGA1UdEQQTMBGBD3BwYXJrZXJAZGRmLm9yZzAN
BgkqhkiG9w0BAQUFAAOBgQBBvpL06FZJU+JhOijUNN9EndjsnEJY6J33pOhHtR5H
E1Fk3fJHe4Cvp7kOyaXoneQHOxDT5YT4Kd2uoxzW1+XukDVpciNPLTsZbtZbW5Lh
Y2IkrLvapoPzp/HjMfCMU1KebA+tInezpk+zsqrIjaSYR3YwjVkAzxaR/keS2CTe
Rw==
-----END CERTIFICATE-----
