Certificate:
    Data:
        Version: 3 (0x2)
        Serial Number: 10150234320881753959 (0x8cdce0562b229f67)
    Signature Algorithm: sha1WithRSAEncryption
        Issuer: C=US, ST=AZ, O=DDF, OU=Dev, CN=DDF Demo Root CA/emailAddress=ddfrootca@example.org
        Validity
            Not Before: Dec 10 21:59:25 2014 GMT
            Not After : Dec 10 21:59:25 2015 GMT
        Subject: C=US, ST=AZ, L=Goodyear, O=DDF, OU=Dev, CN=pparker/emailAddress=pparker@example.org
        Subject Public Key Info:
            Public Key Algorithm: rsaEncryption
                Public-Key: (1024 bit)
                Modulus:
                    00:d8:39:a9:92:08:9a:a4:83:6d:90:d3:f3:42:44:
                    3a:00:bb:13:dc:fc:18:0b:ff:13:de:fc:cb:87:a2:
                    81:5d:22:e2:7e:dd:6c:a2:9b:9f:e5:c0:af:9d:0c:
                    84:ff:06:cc:96:17:a5:48:d1:00:3c:75:9a:22:c3:
                    4b:95:68:3a:3b:ad:4b:6b:df:c7:d0:39:f0:f4:e8:
                    e9:24:47:55:8b:a2:69:34:0b:25:e1:e6:75:45:73:
                    4e:d0:7a:33:a2:9f:d4:56:01:54:09:1a:16:73:1b:
                    b1:2d:8d:d5:ba:20:cc:8b:0e:61:19:fe:18:cb:1d:
                    18:e9:0c:c0:21:f5:38:66:71
                Exponent: 65537 (0x10001)
        X509v3 extensions:
            X509v3 Basic Constraints: 
                CA:FALSE
            Netscape Comment: 
                FOR TESTING PURPOSE ONLY
            X509v3 Subject Key Identifier: 
                CE:66:42:F8:E8:4A:82:82:F6:05:8F:23:C6:D7:57:CD:24:26:3F:13
            X509v3 Authority Key Identifier: 
                keyid:E1:54:C7:97:DF:0A:C2:BF:A9:5F:78:5E:3B:0B:2B:E4:48:17:BD:C6

            X509v3 Subject Alternative Name: 
                email:pparker@example.org
    Signature Algorithm: sha1WithRSAEncryption
         89:39:cc:6f:05:00:11:a6:3f:54:8b:99:aa:80:b3:07:f9:d1:
         e3:8c:47:86:e7:7f:4c:ec:05:15:5c:fe:20:13:e9:cf:65:b6:
         17:9b:84:0f:e9:3a:e0:fc:30:84:38:60:88:d5:0d:cc:d7:84:
         39:66:8c:73:dd:1e:05:c7:78:6b:bc:1a:c6:0b:c5:3c:66:44:
         ef:24:9e:13:82:66:c1:26:8e:7a:cc:85:14:49:46:8e:68:92:
         f4:a2:68:fc:40:d4:bc:7c:3e:cc:92:d8:9e:07:80:70:1a:22:
         22:67:7b:a1:e2:8d:bb:a6:d1:56:17:ff:7f:a5:fd:83:09:0f:
         3e:58
-----BEGIN CERTIFICATE-----
MIIDDDCCAnWgAwIBAgIJAIzc4FYrIp9nMA0GCSqGSIb3DQEBBQUAMHcxCzAJBgNV
BAYTAlVTMQswCQYDVQQIDAJBWjEMMAoGA1UECgwDRERGMQwwCgYDVQQLDANEZXYx
GTAXBgNVBAMMEERERiBEZW1vIFJvb3QgQ0ExJDAiBgkqhkiG9w0BCQEWFWRkZnJv
b3RjYUBleGFtcGxlLm9yZzAeFw0xNDEyMTAyMTU5MjVaFw0xNTEyMTAyMTU5MjVa
MH8xCzAJBgNVBAYTAlVTMQswCQYDVQQIDAJBWjERMA8GA1UEBwwIR29vZHllYXIx
DDAKBgNVBAoMA0RERjEMMAoGA1UECwwDRGV2MRAwDgYDVQQDDAdwcGFya2VyMSIw
IAYJKoZIhvcNAQkBFhNwcGFya2VyQGV4YW1wbGUub3JnMIGfMA0GCSqGSIb3DQEB
AQUAA4GNADCBiQKBgQDYOamSCJqkg22Q0/NCRDoAuxPc/BgL/xPe/MuHooFdIuJ+
3Wyim5/lwK+dDIT/BsyWF6VI0QA8dZoiw0uVaDo7rUtr38fQOfD06OkkR1WLomk0
CyXh5nVFc07QejOin9RWAVQJGhZzG7EtjdW6IMyLDmEZ/hjLHRjpDMAh9ThmcQID
AQABo4GXMIGUMAkGA1UdEwQCMAAwJwYJYIZIAYb4QgENBBoWGEZPUiBURVNUSU5H
IFBVUlBPU0UgT05MWTAdBgNVHQ4EFgQUzmZC+OhKgoL2BY8jxtdXzSQmPxMwHwYD
VR0jBBgwFoAU4VTHl98Kwr+pX3heOwsr5EgXvcYwHgYDVR0RBBcwFYETcHBhcmtl
ckBleGFtcGxlLm9yZzANBgkqhkiG9w0BAQUFAAOBgQCJOcxvBQARpj9Ui5mqgLMH
+dHjjEeG539M7AUVXP4gE+nPZbYXm4QP6Trg/DCEOGCI1Q3M14Q5Zoxz3R4Fx3hr
vBrGC8U8ZkTvJJ4TgmbBJo56zIUUSUaOaJL0omj8QNS8fD7MktieB4BwGiIiZ3uh
4o27ptFWF/9/pf2DCQ8+WA==
-----END CERTIFICATE-----
