Certificate:
    Data:
        Version: 3 (0x2)
        Serial Number: 3 (0x3)
        Signature Algorithm: sha1WithRSAEncryption
        Issuer: C=AQ, ST=Antarctica, O=Distributed Data Framework, CN=DDF CA
        Validity
            Not Before: Jun 30 20:19:01 2014 GMT
            Not After : Jul  2 20:19:01 2024 GMT
        Subject: CN=Bad Client, ST=Antarctica, C=AQ, O=Distributed Data Framework
        Subject Public Key Info:
            Public Key Algorithm: rsaEncryption
            RSA Public Key: (4096 bit)
                Modulus (4096 bit):
                    00:be:8e:f8:dd:45:5e:de:57:dd:69:2b:dd:aa:99:
                    eb:14:5e:c4:9e:6d:55:4c:3e:29:81:38:4a:92:51:
                    15:7d:7f:fd:7b:fd:9f:31:b2:8e:ee:96:48:fc:b0:
                    fd:a2:4c:2f:83:83:d9:1d:fe:a5:cf:c6:d1:aa:00:
                    2a:11:0d:37:e7:9f:07:77:29:b7:21:f1:b6:2e:41:
                    64:d7:ab:b4:a8:5c:11:63:a0:38:d1:2d:4b:b0:df:
                    77:0b:b2:44:e2:33:b7:5f:96:74:9b:61:61:26:26:
                    55:73:28:5c:c1:c3:d0:b0:42:a7:a8:da:b7:db:d1:
                    d3:4b:53:0a:a8:32:a3:d8:67:b2:80:94:c5:56:60:
                    57:2c:0a:26:a3:aa:5c:f0:21:18:44:a5:0b:ca:26:
                    44:41:29:2a:44:10:00:df:d0:6f:9d:13:39:7d:ea:
                    18:02:41:2b:e7:e1:28:86:cc:06:5c:de:6b:a2:39:
                    03:e1:db:a6:74:da:e0:ac:f2:9a:ea:03:8f:47:73:
                    8c:f4:75:52:d6:98:73:07:b3:6a:83:08:df:79:d9:
                    b1:46:db:be:b9:fa:eb:f3:9c:49:31:4c:3f:f9:ab:
                    dd:18:8b:a8:68:f6:64:79:eb:82:ff:56:74:7a:e7:
                    f4:1a:c0:c2:b4:8e:41:72:73:2a:0d:a9:2d:b9:56:
                    e5:7e:f7:fd:ab:f6:70:8a:43:e5:5d:d1:53:cc:52:
                    30:16:51:75:68:61:ef:57:b3:ea:22:32:46:29:b8:
                    94:e1:36:da:2a:7a:20:80:0a:8c:97:7d:71:fc:44:
                    50:40:a0:50:2a:71:69:a6:b7:27:1a:23:eb:27:5c:
                    57:cd:43:8f:b9:45:b2:9b:79:58:5b:f7:f6:34:bc:
                    96:13:11:62:d2:e5:fd:8f:b3:f8:ac:18:bf:57:dd:
                    46:21:6e:54:46:56:28:ef:dd:c7:57:c9:03:02:94:
                    c6:61:87:fd:b1:c7:8b:38:2a:b7:06:28:33:d3:ec:
                    79:d6:7c:f4:47:57:3c:2e:37:3f:c1:d2:9c:a2:99:
                    ba:6d:e8:ff:c2:7f:14:b4:6a:13:22:1a:57:3a:9b:
                    57:f7:8a:ee:74:04:69:45:c2:9f:7b:77:2f:a4:76:
                    af:30:71:0b:b0:53:94:40:2c:fd:22:6a:b6:f2:54:
                    59:a6:82:47:64:8a:26:72:9e:29:13:9b:8e:8c:cc:
                    20:87:81:2b:db:b3:fb:a3:db:9f:81:5d:b8:5c:bd:
                    f0:a7:80:ef:80:cc:1a:7c:39:25:2a:88:bb:50:d6:
                    55:b1:da:81:d5:fb:6e:5b:16:cc:e9:c0:5f:91:b6:
                    87:84:06:c3:8c:28:10:b6:ef:db:8c:7d:41:4b:e3:
                    4e:5f:27
                Exponent: 65537 (0x10001)
        X509v3 extensions:
            X509v3 Basic Constraints: 
                CA:FALSE
            X509v3 Subject Key Identifier: 
                0C:21:59:8A:BE:8B:C5:2D:B2:52:11:0A:82:99:9C:3C:4C:B8:D1:54
            X509v3 Authority Key Identifier: 
                keyid:DA:73:27:B1:1B:A0:CF:C4:26:4B:07:F0:97:24:CC:F7:6A:5B:39:DA

            X509v3 Key Usage: 
                Digital Signature, Key Encipherment
            X509v3 Extended Key Usage: 
                TLS Web Server Authentication, TLS Web Client Authentication
            X509v3 CRL Distribution Points: 
                URI:http://example.com/root.crl

            X509v3 Subject Alternative Name: 
                DNS:example.com, DNS:*.example.com
    Signature Algorithm: sha1WithRSAEncryption
        13:4b:d8:7a:4c:72:a5:e5:ad:3d:64:36:47:8e:44:12:9a:1d:
        1a:12:32:71:8e:60:33:6d:97:d5:ef:d1:d5:8f:86:77:dd:be:
        86:23:93:37:94:f5:b1:20:28:2f:f8:73:b4:c3:7c:88:32:d9:
        b0:db:ec:83:a1:05:86:ba:d3:8d:9d:d3:90:96:23:e5:83:ee:
        49:34:0b:da:47:db:ab:25:7c:1b:ef:e2:74:d2:ee:d9:7e:09:
        2d:1b:45:9c:28:c7:78:39:88:48:55:62:c7:6e:c3:37:75:1c:
        8d:ce:5b:a3:4b:aa:64:93:4f:de:c6:5b:35:bd:a7:e8:f8:7d:
        2c:30:b5:a4:c8:10:db:03:57:a7:87:37:32:ca:18:0c:a3:e6:
        44:1c:ef:4a:04:7d:29:a2:9d:68:59:df:12:27:94:6d:fc:c2:
        64:f4:a4:d9:fe:eb:5a:fd:12:06:6e:97:8d:a6:2f:72:1a:18:
        fe:11:1e:b0:b8:22:33:1a:89:85:fe:96:7f:40:50:e2:49:b0:
        69:94:7a:1e:4c:55:9a:24:c8:5b:a2:a9:44:cd:20:08:a3:d2:
        fc:81:86:40:36:f8:ca:27:df:3a:e2:23:ac:9d:1d:ef:0f:11:
        e4:87:a2:22:b8:08:d0:f1:e6:26:e5:75:bc:8f:72:b8:9e:94:
        6d:e3:1f:b6:2b:cc:39:92:bb:17:0f:51:de:65:91:63:00:ad:
        e0:0b:2f:73:b0:3b:e5:e0:0a:42:4c:49:f6:86:bb:fb:d8:f1:
        56:45:5b:6d:fa:bb:25:7c:f8:fd:bd:df:19:1e:da:26:58:0c:
        d7:2a:27:03:b3:4f:bc:19:d4:d7:ed:75:d3:db:10:59:f5:4b:
        6d:37:b3:a6:d2:59:65:80:87:78:d3:ed:a7:f2:64:03:1c:8c:
        71:c7:12:17:12:a8:52:e2:38:5b:ce:64:d6:29:e2:ba:5f:da:
        a2:d4:c2:fd:07:68:aa:7a:b6:7c:67:e3:0e:36:62:bc:74:5a:
        ad:7b:22:07:c0:96:da:77:a2:18:28:cf:1a:18:3d:a0:48:02:
        70:ea:58:f1:a1:56:34:a5:1a:62:76:60:11:df:4b:a8:82:1d:
        79:f2:78:22:68:c2:0c:e2:38:79:be:5a:19:3e:30:e4:8e:4c:
        d1:a0:c6:bd:0c:2e:16:02:ca:b5:3f:0b:d0:f6:78:09:56:7a:
        ce:c3:f0:63:86:b0:68:cd:dd:90:47:f3:72:9d:ff:68:cb:e2:
        ed:b3:00:4e:a7:fb:22:08:87:cc:13:f5:cc:6c:e3:14:af:d8:
        42:df:81:d5:7e:00:a9:ca:9a:e7:8a:0e:cf:86:c5:43:14:be:
        eb:32:37:48:6d:c6:cf:a5
-----BEGIN CERTIFICATE-----
MIIF/zCCA+egAwIBAgIBAzANBgkqhkiG9w0BAQUFADBYMQswCQYDVQQGEwJBUTET
MBEGA1UECAwKQW50YXJjdGljYTEjMCEGA1UECgwaRGlzdHJpYnV0ZWQgRGF0YSBG
cmFtZXdvcmsxDzANBgNVBAMMBkRERiBDQTAeFw0xNDA2MzAyMDE5MDFaFw0yNDA3
MDIyMDE5MDFaMFwxEzARBgNVBAMTCkJhZCBDbGllbnQxEzARBgNVBAgTCkFudGFy
Y3RpY2ExCzAJBgNVBAYTAkFRMSMwIQYDVQQKExpEaXN0cmlidXRlZCBEYXRhIEZy
YW1ld29yazCCAiIwDQYJKoZIhvcNAQEBBQADggIPADCCAgoCggIBAL6O+N1FXt5X
3Wkr3aqZ6xRexJ5tVUw+KYE4SpJRFX1//Xv9nzGyju6WSPyw/aJML4OD2R3+pc/G
0aoAKhENN+efB3cptyHxti5BZNertKhcEWOgONEtS7DfdwuyROIzt1+WdJthYSYm
VXMoXMHD0LBCp6jat9vR00tTCqgyo9hnsoCUxVZgVywKJqOqXPAhGESlC8omREEp
KkQQAN/Qb50TOX3qGAJBK+fhKIbMBlzea6I5A+HbpnTa4KzymuoDj0dzjPR1UtaY
cwezaoMI33nZsUbbvrn66/OcSTFMP/mr3RiLqGj2ZHnrgv9WdHrn9BrAwrSOQXJz
Kg2pLblW5X73/av2cIpD5V3RU8xSMBZRdWhh71ez6iIyRim4lOE22ip6IIAKjJd9
cfxEUECgUCpxaaa3Jxoj6ydcV81Dj7lFspt5WFv39jS8lhMRYtLl/Y+z+KwYv1fd
RiFuVEZWKO/dx1fJAwKUxmGH/bHHizgqtwYoM9PsedZ89EdXPC43P8HSnKKZum3o
/8J/FLRqEyIaVzqbV/eK7nQEaUXCn3t3L6R2rzBxC7BTlEAs/SJqtvJUWaaCR2SK
JnKeKRObjozMIIeBK9uz+6Pbn4FduFy98KeA74DMGnw5JSqIu1DWVbHagdX7blsW
zOnAX5G2h4QGw4woELbv24x9QUvjTl8nAgMBAAGjgc8wgcwwCQYDVR0TBAIwADAd
BgNVHQ4EFgQUDCFZir6LxS2yUhEKgpmcPEy40VQwHwYDVR0jBBgwFoAU2nMnsRug
z8QmSwfwlyTM92pbOdowCwYDVR0PBAQDAgWgMB0GA1UdJQQWMBQGCCsGAQUFBwMB
BggrBgEFBQcDAjAsBgNVHR8EJTAjMCGgH6AdhhtodHRwOi8vZXhhbXBsZS5jb20v
cm9vdC5jcmwwJQYDVR0RBB4wHIILZXhhbXBsZS5jb22CDSouZXhhbXBsZS5jb20w
DQYJKoZIhvcNAQEFBQADggIBABNL2HpMcqXlrT1kNkeORBKaHRoSMnGOYDNtl9Xv
0dWPhnfdvoYjkzeU9bEgKC/4c7TDfIgy2bDb7IOhBYa6042d05CWI+WD7kk0C9pH
26slfBvv4nTS7tl+CS0bRZwox3g5iEhVYsduwzd1HI3OW6NLqmSTT97GWzW9p+j4
fSwwtaTIENsDV6eHNzLKGAyj5kQc70oEfSminWhZ3xInlG38wmT0pNn+61r9EgZu
l42mL3IaGP4RHrC4IjMaiYX+ln9AUOJJsGmUeh5MVZokyFuiqUTNIAij0vyBhkA2
+Mon3zriI6ydHe8PEeSHoiK4CNDx5ibldbyPcrielG3jH7YrzDmSuxcPUd5lkWMA
reALL3OwO+XgCkJMSfaGu/vY8VZFW236uyV8+P293xke2iZYDNcqJwOzT7wZ1Nft
ddPbEFn1S203s6bSWWWAh3jT7afyZAMcjHHHEhcSqFLiOFvOZNYp4rpf2qLUwv0H
aKp6tnxn4w42Yrx0Wq17IgfAltp3ohgozxoYPaBIAnDqWPGhVjSlGmJ2YBHfS6iC
HXnyeCJowgziOHm+Whk+MOSOTNGgxr0MLhYCyrU/C9D2eAlWes7D8GOGsGjN3ZBH
83Kd/2jL4u2zAE6n+yIIh8wT9cxs4xSv2ELfgdV+AKnKmueKDs+GxUMUvusyN0ht
xs+l
-----END CERTIFICATE-----
