Certificate:
    Data:
        Version: 3 (0x2)
        Serial Number: 14311466971964385925 (0xc69c8b62b6ac2a85)
    Signature Algorithm: sha1WithRSAEncryption
        Issuer: C=US, ST=AZ, O=DDF, OU=Dev, CN=DDF Demo Root CA/emailAddress=rootca@ddf.org
        Validity
            Not Before: Dec  4 19:56:55 2014 GMT
            Not After : Dec  4 19:56:55 2015 GMT
        Subject: C=US, ST=AZ, L=Goodyear, O=DDF, OU=Dev, CN=localhost/emailAddress=localhost@ddf.org
        Subject Public Key Info:
            Public Key Algorithm: rsaEncryption
                Public-Key: (1024 bit)
                Modulus:
                    00:a1:40:af:ce:3e:a0:fa:59:a5:0f:dc:28:22:30:
                    03:9b:3a:bc:64:71:87:83:ef:2c:9f:d9:75:6a:21:
                    ac:73:9c:f1:e5:54:ae:00:f0:a1:0f:a8:71:66:89:
                    80:bf:1f:d7:33:fb:58:e0:8e:52:31:2a:ad:57:f6:
                    57:36:69:a0:33:bb:43:be:96:c6:f8:aa:ad:16:2f:
                    ff:0a:29:3f:3f:bd:12:02:3c:d5:9e:c6:c5:59:dc:
                    9c:ec:b2:d1:ec:3a:bb:1a:87:36:8a:b7:16:86:09:
                    43:e8:19:5d:d8:c0:99:7c:fa:49:8d:8d:2e:fa:e9:
                    fb:4e:08:fe:dd:19:f9:ca:6d
                Exponent: 65537 (0x10001)
        X509v3 extensions:
            X509v3 Basic Constraints: 
                CA:FALSE
            Netscape Comment: 
                FOR TESTING PURPOSE ONLY
            X509v3 Subject Key Identifier: 
                88:CE:CF:0F:CF:00:9A:D0:65:78:23:56:F3:67:2C:7F:90:37:36:50
            X509v3 Authority Key Identifier: 
                keyid:FF:FF:1B:39:1D:AF:90:E7:A6:5D:C7:A7:14:0F:A5:FF:FC:EC:84:36

            X509v3 Subject Alternative Name: 
                email:localhost@ddf.org
    Signature Algorithm: sha1WithRSAEncryption
         88:13:39:47:74:ab:dc:49:db:5c:f3:ff:5f:69:ad:de:1b:c9:
         48:48:a1:6e:4c:0e:3a:12:98:cd:18:1d:d2:f8:2f:07:55:35:
         11:87:48:d3:5f:3c:4a:b7:90:52:79:7b:dd:8a:af:cc:84:ba:
         67:dd:9b:04:30:77:00:b2:69:c9:21:97:22:31:e0:9a:31:06:
         03:ce:32:6b:73:cf:ae:b0:dc:44:20:6c:72:fd:60:e0:36:eb:
         b7:e9:43:a8:e6:8c:76:a4:7e:5c:79:75:cd:6a:e0:68:b5:f1:
         93:8a:94:33:bc:4f:8f:a3:5b:9e:a0:f6:99:c9:41:ec:33:fa:
         1f:9d
-----BEGIN CERTIFICATE-----
MIIDAzCCAmygAwIBAgIJAMaci2K2rCqFMA0GCSqGSIb3DQEBBQUAMHAxCzAJBgNV
BAYTAlVTMQswCQYDVQQIDAJBWjEMMAoGA1UECgwDRERGMQwwCgYDVQQLDANEZXYx
GTAXBgNVBAMMEERERiBEZW1vIFJvb3QgQ0ExHTAbBgkqhkiG9w0BCQEWDnJvb3Rj
YUBkZGYub3JnMB4XDTE0MTIwNDE5NTY1NVoXDTE1MTIwNDE5NTY1NVowfzELMAkG
A1UEBhMCVVMxCzAJBgNVBAgMAkFaMREwDwYDVQQHDAhHb29keWVhcjEMMAoGA1UE
CgwDRERGMQwwCgYDVQQLDANEZXYxEjAQBgNVBAMMCWxvY2FsaG9zdDEgMB4GCSqG
SIb3DQEJARYRbG9jYWxob3N0QGRkZi5vcmcwgZ8wDQYJKoZIhvcNAQEBBQADgY0A
MIGJAoGBAKFAr84+oPpZpQ/cKCIwA5s6vGRxh4PvLJ/ZdWohrHOc8eVUrgDwoQ+o
cWaJgL8f1zP7WOCOUjEqrVf2VzZpoDO7Q76WxviqrRYv/wopPz+9EgI81Z7GxVnc
nOyy0ew6uxqHNoq3FoYJQ+gZXdjAmXz6SY2NLvrp+04I/t0Z+cptAgMBAAGjgZUw
gZIwCQYDVR0TBAIwADAnBglghkgBhvhCAQ0EGhYYRk9SIFRFU1RJTkcgUFVSUE9T
RSBPTkxZMB0GA1UdDgQWBBSIzs8PzwCa0GV4I1bzZyx/kDc2UDAfBgNVHSMEGDAW
gBT//xs5Ha+Q56Zdx6cUD6X//OyENjAcBgNVHREEFTATgRFsb2NhbGhvc3RAZGRm
Lm9yZzANBgkqhkiG9w0BAQUFAAOBgQCIEzlHdKvcSdtc8/9faa3eG8lISKFuTA46
EpjNGB3S+C8HVTURh0jTXzxKt5BSeXvdiq/MhLpn3ZsEMHcAsmnJIZciMeCaMQYD
zjJrc8+usNxEIGxy/WDgNuu36UOo5ox2pH5ceXXNauBotfGTipQzvE+Po1ueoPaZ
yUHsM/ofnQ==
-----END CERTIFICATE-----
