Certificate:
    Data:
        Version: 3 (0x2)
        Serial Number: 10150234320881753958 (0x8cdce0562b229f66)
    Signature Algorithm: sha1WithRSAEncryption
        Issuer: C=US, ST=AZ, O=DDF, OU=Dev, CN=DDF Demo Root CA/emailAddress=ddfrootca@example.org
        Validity
            Not Before: Dec 10 21:58:18 2014 GMT
            Not After : Dec 10 21:58:18 2015 GMT
        Subject: C=US, ST=AZ, L=Goodyear, O=DDF, OU=Dev, CN=localhost/emailAddress=localhost@example.org
        Subject Public Key Info:
            Public Key Algorithm: rsaEncryption
                Public-Key: (1024 bit)
                Modulus:
                    00:c7:82:c8:d6:5b:09:36:69:84:74:1f:07:98:3c:
                    16:b8:01:ab:54:58:cd:5e:e2:91:5c:3f:a5:51:a4:
                    cf:c8:31:de:5d:c0:f7:db:3c:5a:d0:38:99:10:1e:
                    6f:a9:f4:bd:34:7d:c8:d0:4e:7a:45:b8:9d:83:a2:
                    10:ea:bf:fd:84:e2:fd:fa:c8:d6:4c:f4:41:b1:07:
                    d6:cd:9c:23:99:c5:06:eb:5a:6c:3d:cf:60:6c:54:
                    4a:e6:a9:6d:cf:80:4b:bf:8f:92:5a:f4:4c:32:38:
                    31:1c:cf:3e:49:13:a7:8c:25:39:14:3f:6b:a0:9f:
                    56:c3:6b:fe:65:60:2f:60:9f
                Exponent: 65537 (0x10001)
        X509v3 extensions:
            X509v3 Basic Constraints: 
                CA:FALSE
            Netscape Comment: 
                FOR TESTING PURPOSE ONLY
            X509v3 Subject Key Identifier: 
                80:F7:94:08:33:20:40:1D:1B:1D:D1:1E:2C:EC:2D:C1:AD:E1:6B:B0
            X509v3 Authority Key Identifier: 
                keyid:E1:54:C7:97:DF:0A:C2:BF:A9:5F:78:5E:3B:0B:2B:E4:48:17:BD:C6

            X509v3 Subject Alternative Name: 
                email:localhost@example.org
    Signature Algorithm: sha1WithRSAEncryption
         b5:15:29:ed:f0:31:53:f1:3a:24:3d:8a:8f:ff:82:4d:6a:ae:
         f0:49:71:d7:74:b4:4f:1a:08:aa:fd:e0:32:80:56:d1:e8:72:
         cc:42:a3:26:2d:1b:6f:58:14:c4:ee:e7:d5:29:8e:11:2a:79:
         b0:4d:e3:19:39:e1:d0:6b:58:57:40:f6:d7:dc:ff:d3:d9:fd:
         d1:c7:7f:8a:60:04:86:49:c9:95:ac:b2:77:44:a3:a6:76:8b:
         f4:95:1d:f2:e6:31:25:ec:72:f1:32:76:b0:c8:6c:18:06:7a:
         10:c4:d9:09:f4:fd:9b:4e:d7:76:ec:63:b2:60:f3:d2:19:52:
         19:5d
-----BEGIN CERTIFICATE-----
MIIDEzCCAnygAwIBAgIJAIzc4FYrIp9mMA0GCSqGSIb3DQEBBQUAMHcxCzAJBgNV
BAYTAlVTMQswCQYDVQQIDAJBWjEMMAoGA1UECgwDRERGMQwwCgYDVQQLDANEZXYx
GTAXBgNVBAMMEERERiBEZW1vIFJvb3QgQ0ExJDAiBgkqhkiG9w0BCQEWFWRkZnJv
b3RjYUBleGFtcGxlLm9yZzAeFw0xNDEyMTAyMTU4MThaFw0xNTEyMTAyMTU4MTha
MIGDMQswCQYDVQQGEwJVUzELMAkGA1UECAwCQVoxETAPBgNVBAcMCEdvb2R5ZWFy
MQwwCgYDVQQKDANEREYxDDAKBgNVBAsMA0RldjESMBAGA1UEAwwJbG9jYWxob3N0
MSQwIgYJKoZIhvcNAQkBFhVsb2NhbGhvc3RAZXhhbXBsZS5vcmcwgZ8wDQYJKoZI
hvcNAQEBBQADgY0AMIGJAoGBAMeCyNZbCTZphHQfB5g8FrgBq1RYzV7ikVw/pVGk
z8gx3l3A99s8WtA4mRAeb6n0vTR9yNBOekW4nYOiEOq//YTi/frI1kz0QbEH1s2c
I5nFButabD3PYGxUSuapbc+AS7+Pklr0TDI4MRzPPkkTp4wlORQ/a6CfVsNr/mVg
L2CfAgMBAAGjgZkwgZYwCQYDVR0TBAIwADAnBglghkgBhvhCAQ0EGhYYRk9SIFRF
U1RJTkcgUFVSUE9TRSBPTkxZMB0GA1UdDgQWBBSA95QIMyBAHRsd0R4s7C3BreFr
sDAfBgNVHSMEGDAWgBThVMeX3wrCv6lfeF47CyvkSBe9xjAgBgNVHREEGTAXgRVs
b2NhbGhvc3RAZXhhbXBsZS5vcmcwDQYJKoZIhvcNAQEFBQADgYEAtRUp7fAxU/E6
JD2Kj/+CTWqu8Elx13S0TxoIqv3gMoBW0ehyzEKjJi0bb1gUxO7n1SmOESp5sE3j
GTnh0GtYV0D219z/09n90cd/imAEhknJlayyd0SjpnaL9JUd8uYxJexy8TJ2sMhs
GAZ6EMTZCfT9m07XduxjsmDz0hlSGV0=
-----END CERTIFICATE-----
