Certificate:
    Data:
        Version: 3 (0x2)
        Serial Number: 14311466971964385924 (0xc69c8b62b6ac2a84)
    Signature Algorithm: sha1WithRSAEncryption
        Issuer: C=US, ST=AZ, O=DDF, OU=Dev, CN=DDF Demo Root CA/emailAddress=rootca@ddf.org
        Validity
            Not Before: Nov 25 23:43:59 2014 GMT
            Not After : Nov 24 23:43:59 2017 GMT
        Subject: C=US, ST=AZ, O=DDF, OU=Dev, CN=DDF Demo Root CA/emailAddress=rootca@ddf.org
        Subject Public Key Info:
            Public Key Algorithm: rsaEncryption
                Public-Key: (1024 bit)
                Modulus:
                    00:d3:cf:a5:0d:cb:ff:8b:ca:49:70:e0:4e:2c:10:
                    d3:2f:73:c6:41:41:b2:d5:c0:3c:0d:4b:d1:24:50:
                    c5:fb:a1:5c:b4:cf:27:c1:3a:8a:11:8d:3b:3c:be:
                    b9:74:5b:84:09:18:c0:b1:9b:29:0b:1f:85:e7:ee:
                    95:5a:36:32:3d:18:50:a5:ba:87:5e:f4:85:64:08:
                    cc:ce:1c:3e:ef:69:53:3f:6e:81:12:a4:c2:93:69:
                    9e:1b:6c:20:0b:d7:9c:c2:87:5d:45:43:66:ce:3a:
                    74:44:07:d9:90:49:82:b6:dd:5c:3e:af:8d:0d:1e:
                    c3:3f:7f:eb:27:28:c0:75:dd
                Exponent: 65537 (0x10001)
        X509v3 extensions:
            X509v3 Subject Key Identifier: 
                FF:FF:1B:39:1D:AF:90:E7:A6:5D:C7:A7:14:0F:A5:FF:FC:EC:84:36
            X509v3 Authority Key Identifier: 
                keyid:FF:FF:1B:39:1D:AF:90:E7:A6:5D:C7:A7:14:0F:A5:FF:FC:EC:84:36

            X509v3 Basic Constraints: 
                CA:TRUE
    Signature Algorithm: sha1WithRSAEncryption
         7b:0a:dc:b7:44:53:70:a4:2d:c3:5a:f5:63:6f:f9:dd:2f:6b:
         2c:55:cc:bc:56:99:58:1c:4b:a3:1b:d4:9d:66:7c:99:48:96:
         f6:9b:6d:76:df:43:66:f2:18:fb:aa:da:d1:05:97:d4:98:44:
         ce:39:a5:ba:97:b3:af:16:cb:b1:50:b4:76:64:4d:43:88:5e:
         64:e3:4e:af:61:0a:6a:b7:c6:d5:02:4b:d7:5d:d7:9f:33:34:
         59:74:d4:ee:13:5b:9c:14:24:6f:29:70:a0:37:84:32:84:33:
         c5:a3:d9:ed:d3:50:b5:46:c8:7b:9e:fe:a7:ad:91:ce:14:83:
         5a:aa
-----BEGIN CERTIFICATE-----
MIICrjCCAhegAwIBAgIJAMaci2K2rCqEMA0GCSqGSIb3DQEBBQUAMHAxCzAJBgNV
BAYTAlVTMQswCQYDVQQIDAJBWjEMMAoGA1UECgwDRERGMQwwCgYDVQQLDANEZXYx
GTAXBgNVBAMMEERERiBEZW1vIFJvb3QgQ0ExHTAbBgkqhkiG9w0BCQEWDnJvb3Rj
YUBkZGYub3JnMB4XDTE0MTEyNTIzNDM1OVoXDTE3MTEyNDIzNDM1OVowcDELMAkG
A1UEBhMCVVMxCzAJBgNVBAgMAkFaMQwwCgYDVQQKDANEREYxDDAKBgNVBAsMA0Rl
djEZMBcGA1UEAwwQRERGIERlbW8gUm9vdCBDQTEdMBsGCSqGSIb3DQEJARYOcm9v
dGNhQGRkZi5vcmcwgZ8wDQYJKoZIhvcNAQEBBQADgY0AMIGJAoGBANPPpQ3L/4vK
SXDgTiwQ0y9zxkFBstXAPA1L0SRQxfuhXLTPJ8E6ihGNOzy+uXRbhAkYwLGbKQsf
hefulVo2Mj0YUKW6h170hWQIzM4cPu9pUz9ugRKkwpNpnhtsIAvXnMKHXUVDZs46
dEQH2ZBJgrbdXD6vjQ0ewz9/6ycowHXdAgMBAAGjUDBOMB0GA1UdDgQWBBT//xs5
Ha+Q56Zdx6cUD6X//OyENjAfBgNVHSMEGDAWgBT//xs5Ha+Q56Zdx6cUD6X//OyE
NjAMBgNVHRMEBTADAQH/MA0GCSqGSIb3DQEBBQUAA4GBAHsK3LdEU3CkLcNa9WNv
+d0vayxVzLxWmVgcS6Mb1J1mfJlIlvabbXbfQ2byGPuq2tEFl9SYRM45pbqXs68W
y7FQtHZkTUOIXmTjTq9hCmq3xtUCS9dd158zNFl01O4TW5wUJG8pcKA3hDKEM8Wj
2e3TULVGyHue/qetkc4Ug1qq
-----END CERTIFICATE-----
